target datalayout = "e-m:e-p270:32:32-p271:32:32-p272:64:64-i64:64-i128:128-f80:128-n8:16:32:64-S128"
target triple = "x86_64-pc-linux-gnu"

@MPIR_proctable = external global ptr, align 8
@MPIR_proctable_size = external global i32, align 4
@.str.5 = private unnamed_addr constant [13 x i8] c"multi_prog.c\00", align 1
@__func__.mpir_init = private unnamed_addr constant [10 x i8] c"mpir_init\00", align 1
@.str.6 = private unnamed_addr constant [40 x i8] c"Unable to initialize MPIR_proctable: %m\00", align 1
@error_exit = external global i32, align 4

; Function Attrs: nounwind uwtable
define dso_local void @mpir_init(i32 noundef %0) #0 {
  %2 = alloca i32, align 4
  store i32 %0, ptr %2, align 4
  %3 = load i32, ptr %2, align 4
  store i32 %3, ptr @MPIR_proctable_size, align 4
  %4 = load i32, ptr %2, align 4
  %5 = sext i32 %4 to i64
  %6 = mul i64 24, %5
  %7 = call ptr @slurm_xcalloc(i64 noundef 1, i64 noundef %6, i1 noundef zeroext true, i1 noundef zeroext false, ptr noundef @.str.5, i32 noundef 197, ptr noundef @__func__.mpir_init)
  store ptr %7, ptr @MPIR_proctable, align 8
  %8 = load ptr, ptr @MPIR_proctable, align 8
  %9 = icmp eq ptr %8, null
  br i1 %9, label %10, label %13

10:                                               ; preds = %1
  %11 = call i32 (ptr, ...) @error(ptr noundef @.str.6)
  %12 = load i32, ptr @error_exit, align 4
  call void @exit(i32 noundef %12) #11
  unreachable

13:                                               ; preds = %1
  ret void
}