; Function Attrs: nounwind uwtable
define dso_local void @mpir_init(i32 noundef %0) local_unnamed_addr #0 {
  store i32 %0, ptr @MPIR_proctable_size, align 4
  %2 = sext i32 %0 to i64
  %3 = mul nsw i64 %2, 24
  %4 = tail call ptr @slurm_xcalloc(i64 noundef 1, i64 noundef %3, i1 noundef zeroext true, i1 noundef zeroext false, ptr noundef nonnull @.str.5, i32 noundef 197, ptr noundef nonnull @__func__.mpir_init) #9
  store ptr %4, ptr @MPIR_proctable, align 8
  %5 = icmp eq ptr %4, null
  br i1 %5, label %6, label %9

6:                                                ; preds = %1
  %7 = tail call i32 (ptr, ...) @error(ptr noundef nonnull @.str.6) #9
  %8 = load i32, ptr @error_exit, align 4
  tail call void @exit(i32 noundef %8) #12
  unreachable

9:                                                ; preds = %1
  ret void
}